; ModuleID = '27/1654.c'
source_filename = "27/1654.c"
target datalayout = "e-m:e-p270:32:32-p271:32:32-p272:64:64-i64:64-f80:128-n8:16:32:64-S128"
target triple = "x86_64-pc-linux-gnu"

@.str = private unnamed_addr constant [3 x i8] c"%d\00", align 1
@.str.1 = private unnamed_addr constant [12 x i8] c"%lf %lf %lf\00", align 1
@.str.2 = private unnamed_addr constant [17 x i8] c"x1=%.5f;x2=%.5f\0A\00", align 1
@.str.3 = private unnamed_addr constant [29 x i8] c"x1=%.5f+%.5fi;x2=%.5f-%.5fi\0A\00", align 1
@.str.4 = private unnamed_addr constant [12 x i8] c"x1=x2=%.5f\0A\00", align 1

; Function Attrs: noinline nounwind uwtable
define dso_local i32 @main() #0 {
  %1 = alloca i32, align 4
  %2 = alloca i32, align 4
  %3 = alloca i32, align 4
  %4 = alloca [100 x double], align 16
  %5 = alloca [100 x double], align 16
  %6 = alloca [100 x double], align 16
  %7 = alloca double, align 8
  %8 = alloca double, align 8
  %9 = alloca double, align 8
  store i32 0, i32* %1, align 4
  %10 = bitcast [100 x double]* %4 to i8*
  call void @llvm.memset.p0i8.i64(i8* align 16 %10, i8 0, i64 800, i1 false)
  %11 = bitcast [100 x double]* %5 to i8*
  call void @llvm.memset.p0i8.i64(i8* align 16 %11, i8 0, i64 800, i1 false)
  %12 = bitcast [100 x double]* %6 to i8*
  call void @llvm.memset.p0i8.i64(i8* align 16 %12, i8 0, i64 800, i1 false)
  %13 = call i32 (i8*, ...) @__isoc99_scanf(i8* getelementptr inbounds ([3 x i8], [3 x i8]* @.str, i64 0, i64 0), i32* %2)
  store i32 1, i32* %3, align 4
  br label %14

14:                                               ; preds = %29, %0
  %15 = load i32, i32* %3, align 4
  %16 = load i32, i32* %2, align 4
  %17 = icmp sle i32 %15, %16
  br i1 %17, label %18, label %32

18:                                               ; preds = %14
  %19 = load i32, i32* %3, align 4
  %20 = sext i32 %19 to i64
  %21 = getelementptr inbounds [100 x double], [100 x double]* %4, i64 0, i64 %20
  %22 = load i32, i32* %3, align 4
  %23 = sext i32 %22 to i64
  %24 = getelementptr inbounds [100 x double], [100 x double]* %5, i64 0, i64 %23
  %25 = load i32, i32* %3, align 4
  %26 = sext i32 %25 to i64
  %27 = getelementptr inbounds [100 x double], [100 x double]* %6, i64 0, i64 %26
  %28 = call i32 (i8*, ...) @__isoc99_scanf(i8* getelementptr inbounds ([12 x i8], [12 x i8]* @.str.1, i64 0, i64 0), double* %21, double* %24, double* %27)
  br label %29

29:                                               ; preds = %18
  %30 = load i32, i32* %3, align 4
  %31 = add nsw i32 %30, 1
  store i32 %31, i32* %3, align 4
  br label %14

32:                                               ; preds = %14
  store i32 1, i32* %3, align 4
  br label %33

33:                                               ; preds = %131, %32
  %34 = load i32, i32* %3, align 4
  %35 = load i32, i32* %2, align 4
  %36 = icmp sle i32 %34, %35
  br i1 %36, label %37, label %134

37:                                               ; preds = %33
  %38 = load i32, i32* %3, align 4
  %39 = sext i32 %38 to i64
  %40 = getelementptr inbounds [100 x double], [100 x double]* %5, i64 0, i64 %39
  %41 = load double, double* %40, align 8
  %42 = load i32, i32* %3, align 4
  %43 = sext i32 %42 to i64
  %44 = getelementptr inbounds [100 x double], [100 x double]* %5, i64 0, i64 %43
  %45 = load double, double* %44, align 8
  %46 = fmul double %41, %45
  %47 = load i32, i32* %3, align 4
  %48 = sext i32 %47 to i64
  %49 = getelementptr inbounds [100 x double], [100 x double]* %4, i64 0, i64 %48
  %50 = load double, double* %49, align 8
  %51 = fmul double 4.000000e+00, %50
  %52 = load i32, i32* %3, align 4
  %53 = sext i32 %52 to i64
  %54 = getelementptr inbounds [100 x double], [100 x double]* %6, i64 0, i64 %53
  %55 = load double, double* %54, align 8
  %56 = fmul double %51, %55
  %57 = fsub double %46, %56
  store double %57, double* %7, align 8
  %58 = load i32, i32* %3, align 4
  %59 = sext i32 %58 to i64
  %60 = getelementptr inbounds [100 x double], [100 x double]* %5, i64 0, i64 %59
  %61 = load double, double* %60, align 8
  %62 = fneg double %61
  %63 = load i32, i32* %3, align 4
  %64 = sext i32 %63 to i64
  %65 = getelementptr inbounds [100 x double], [100 x double]* %4, i64 0, i64 %64
  %66 = load double, double* %65, align 8
  %67 = fmul double 2.000000e+00, %66
  %68 = fdiv double %62, %67
  store double %68, double* %8, align 8
  %69 = load double, double* %8, align 8
  %70 = fcmp olt double %69, 0x3EB0C6F7A0B5ED8D
  br i1 %70, label %71, label %75

71:                                               ; preds = %37
  %72 = load double, double* %8, align 8
  %73 = fcmp ogt double %72, 0xBEB0C6F7A0B5ED8D
  br i1 %73, label %74, label %75

74:                                               ; preds = %71
  store double 0.000000e+00, double* %8, align 8
  br label %75

75:                                               ; preds = %74, %71, %37
  %76 = load double, double* %7, align 8
  %77 = fcmp ogt double %76, 0x3EB0C6F7A0B5ED8D
  br i1 %77, label %78, label %108

78:                                               ; preds = %75
  %79 = load i32, i32* %3, align 4
  %80 = sext i32 %79 to i64
  %81 = getelementptr inbounds [100 x double], [100 x double]* %5, i64 0, i64 %80
  %82 = load double, double* %81, align 8
  %83 = fneg double %82
  %84 = load double, double* %7, align 8
  %85 = call double @sqrt(double %84) #4
  %86 = fadd double %83, %85
  %87 = load i32, i32* %3, align 4
  %88 = sext i32 %87 to i64
  %89 = getelementptr inbounds [100 x double], [100 x double]* %4, i64 0, i64 %88
  %90 = load double, double* %89, align 8
  %91 = fmul double 2.000000e+00, %90
  %92 = fdiv double %86, %91
  %93 = load i32, i32* %3, align 4
  %94 = sext i32 %93 to i64
  %95 = getelementptr inbounds [100 x double], [100 x double]* %5, i64 0, i64 %94
  %96 = load double, double* %95, align 8
  %97 = fneg double %96
  %98 = load double, double* %7, align 8
  %99 = call double @sqrt(double %98) #4
  %100 = fsub double %97, %99
  %101 = load i32, i32* %3, align 4
  %102 = sext i32 %101 to i64
  %103 = getelementptr inbounds [100 x double], [100 x double]* %4, i64 0, i64 %102
  %104 = load double, double* %103, align 8
  %105 = fmul double 2.000000e+00, %104
  %106 = fdiv double %100, %105
  %107 = call i32 (i8*, ...) @printf(i8* getelementptr inbounds ([17 x i8], [17 x i8]* @.str.2, i64 0, i64 0), double %92, double %106)
  br label %130

108:                                              ; preds = %75
  %109 = load double, double* %7, align 8
  %110 = fcmp olt double %109, 0xBEB0C6F7A0B5ED8D
  br i1 %110, label %111, label %126

111:                                              ; preds = %108
  %112 = load double, double* %7, align 8
  %113 = fneg double %112
  %114 = call double @sqrt(double %113) #4
  %115 = load i32, i32* %3, align 4
  %116 = sext i32 %115 to i64
  %117 = getelementptr inbounds [100 x double], [100 x double]* %4, i64 0, i64 %116
  %118 = load double, double* %117, align 8
  %119 = fmul double 2.000000e+00, %118
  %120 = fdiv double %114, %119
  store double %120, double* %9, align 8
  %121 = load double, double* %8, align 8
  %122 = load double, double* %9, align 8
  %123 = load double, double* %8, align 8
  %124 = load double, double* %9, align 8
  %125 = call i32 (i8*, ...) @printf(i8* getelementptr inbounds ([29 x i8], [29 x i8]* @.str.3, i64 0, i64 0), double %121, double %122, double %123, double %124)
  br label %129

126:                                              ; preds = %108
  %127 = load double, double* %8, align 8
  %128 = call i32 (i8*, ...) @printf(i8* getelementptr inbounds ([12 x i8], [12 x i8]* @.str.4, i64 0, i64 0), double %127)
  br label %129

129:                                              ; preds = %126, %111
  br label %130

130:                                              ; preds = %129, %78
  br label %131

131:                                              ; preds = %130
  %132 = load i32, i32* %3, align 4
  %133 = add nsw i32 %132, 1
  store i32 %133, i32* %3, align 4
  br label %33

134:                                              ; preds = %33
  %135 = load i32, i32* %1, align 4
  ret i32 %135
}

; Function Attrs: argmemonly nounwind willreturn
declare void @llvm.memset.p0i8.i64(i8* nocapture writeonly, i8, i64, i1 immarg) #1

declare dso_local i32 @__isoc99_scanf(i8*, ...) #2

declare dso_local i32 @printf(i8*, ...) #2

; Function Attrs: nounwind
declare dso_local double @sqrt(double) #3


!llvm.module.flags = !{!0}
!llvm.ident = !{!1}

!0 = !{i32 1, !"wchar_size", i32 4}
!1 = !{!"clang version 10.0.0-4ubuntu1 "}
