; ModuleID = 'source-C-CXX/26/1654.c'
source_filename = "source-C-CXX/26/1654.c"
target datalayout = "e-m:e-p270:32:32-p271:32:32-p272:64:64-i64:64-f80:128-n8:16:32:64-S128"
target triple = "x86_64-pc-linux-gnu"

@.str = private unnamed_addr constant [3 x i8] c"%d\00", align 1
@.str.1 = private unnamed_addr constant [12 x i8] c"%lf %lf %lf\00", align 1
@.str.2 = private unnamed_addr constant [17 x i8] c"x1=%.5f;x2=%.5f\0A\00", align 1
@.str.3 = private unnamed_addr constant [29 x i8] c"x1=%.5f+%.5fi;x2=%.5f-%.5fi\0A\00", align 1
@.str.4 = private unnamed_addr constant [12 x i8] c"x1=x2=%.5f\0A\00", align 1

; Function Attrs: nofree nounwind sspstrong uwtable
define dso_local i32 @main() local_unnamed_addr #0 {
  %1 = alloca i32, align 4
  %2 = alloca [100 x double], align 16
  %3 = alloca [100 x double], align 16
  %4 = alloca [100 x double], align 16
  %5 = bitcast i32* %1 to i8*
  call void @llvm.lifetime.start.p0i8(i64 4, i8* nonnull %5) #5
  %6 = bitcast [100 x double]* %2 to i8*
  call void @llvm.lifetime.start.p0i8(i64 800, i8* nonnull %6) #5
  call void @llvm.memset.p0i8.i64(i8* noundef nonnull align 16 dereferenceable(800) %6, i8 0, i64 800, i1 false)
  %7 = bitcast [100 x double]* %3 to i8*
  call void @llvm.lifetime.start.p0i8(i64 800, i8* nonnull %7) #5
  call void @llvm.memset.p0i8.i64(i8* noundef nonnull align 16 dereferenceable(800) %7, i8 0, i64 800, i1 false)
  %8 = bitcast [100 x double]* %4 to i8*
  call void @llvm.lifetime.start.p0i8(i64 800, i8* nonnull %8) #5
  call void @llvm.memset.p0i8.i64(i8* noundef nonnull align 16 dereferenceable(800) %8, i8 0, i64 800, i1 false)
  %9 = call i32 (i8*, ...) @__isoc99_scanf(i8* getelementptr inbounds ([3 x i8], [3 x i8]* @.str, i64 0, i64 0), i32* nonnull %1)
  %10 = load i32, i32* %1, align 4, !tbaa !5
  %11 = icmp slt i32 %10, 1
  br i1 %11, label %74, label %14

12:                                               ; preds = %14
  %13 = icmp slt i32 %21, 1
  br i1 %13, label %74, label %24

14:                                               ; preds = %0, %14
  %15 = phi i64 [ %20, %14 ], [ 1, %0 ]
  %16 = getelementptr inbounds [100 x double], [100 x double]* %2, i64 0, i64 %15
  %17 = getelementptr inbounds [100 x double], [100 x double]* %3, i64 0, i64 %15
  %18 = getelementptr inbounds [100 x double], [100 x double]* %4, i64 0, i64 %15
  %19 = call i32 (i8*, ...) @__isoc99_scanf(i8* getelementptr inbounds ([12 x i8], [12 x i8]* @.str.1, i64 0, i64 0), double* nonnull %16, double* nonnull %17, double* nonnull %18)
  %20 = add nuw nsw i64 %15, 1
  %21 = load i32, i32* %1, align 4, !tbaa !5
  %22 = sext i32 %21 to i64
  %23 = icmp slt i64 %15, %22
  br i1 %23, label %14, label %12, !llvm.loop !9

24:                                               ; preds = %12, %69
  %25 = phi i64 [ %70, %69 ], [ 1, %12 ]
  %26 = getelementptr inbounds [100 x double], [100 x double]* %3, i64 0, i64 %25
  %27 = load double, double* %26, align 8, !tbaa !11
  %28 = fmul double %27, %27
  %29 = getelementptr inbounds [100 x double], [100 x double]* %2, i64 0, i64 %25
  %30 = load double, double* %29, align 8, !tbaa !11
  %31 = fmul double %30, 4.000000e+00
  %32 = getelementptr inbounds [100 x double], [100 x double]* %4, i64 0, i64 %25
  %33 = load double, double* %32, align 8, !tbaa !11
  %34 = fmul double %31, %33
  %35 = fsub double %28, %34
  %36 = fneg double %27
  %37 = fmul double %30, 2.000000e+00
  %38 = fdiv double %36, %37
  %39 = fcmp olt double %38, 0x3EB0C6F7A0B5ED8D
  %40 = fcmp ogt double %38, 0xBEB0C6F7A0B5ED8D
  %41 = and i1 %39, %40
  %42 = select i1 %41, double 0.000000e+00, double %38
  %43 = fcmp ogt double %35, 0x3EB0C6F7A0B5ED8D
  br i1 %43, label %44, label %58

44:                                               ; preds = %24
  %45 = call double @sqrt(double %35) #5
  %46 = fsub double %45, %27
  %47 = load double, double* %29, align 8, !tbaa !11
  %48 = fmul double %47, 2.000000e+00
  %49 = fdiv double %46, %48
  %50 = load double, double* %26, align 8, !tbaa !11
  %51 = fneg double %50
  %52 = call double @sqrt(double %35) #5
  %53 = fsub double %51, %52
  %54 = load double, double* %29, align 8, !tbaa !11
  %55 = fmul double %54, 2.000000e+00
  %56 = fdiv double %53, %55
  %57 = call i32 (i8*, ...) @printf(i8* nonnull dereferenceable(1) getelementptr inbounds ([17 x i8], [17 x i8]* @.str.2, i64 0, i64 0), double %49, double %56)
  br label %69

58:                                               ; preds = %24
  %59 = fcmp olt double %35, 0xBEB0C6F7A0B5ED8D
  br i1 %59, label %60, label %67

60:                                               ; preds = %58
  %61 = fneg double %35
  %62 = call double @sqrt(double %61) #5
  %63 = load double, double* %29, align 8, !tbaa !11
  %64 = fmul double %63, 2.000000e+00
  %65 = fdiv double %62, %64
  %66 = call i32 (i8*, ...) @printf(i8* nonnull dereferenceable(1) getelementptr inbounds ([29 x i8], [29 x i8]* @.str.3, i64 0, i64 0), double %42, double %65, double %42, double %65)
  br label %69

67:                                               ; preds = %58
  %68 = call i32 (i8*, ...) @printf(i8* nonnull dereferenceable(1) getelementptr inbounds ([12 x i8], [12 x i8]* @.str.4, i64 0, i64 0), double %42)
  br label %69

69:                                               ; preds = %44, %67, %60
  %70 = add nuw nsw i64 %25, 1
  %71 = load i32, i32* %1, align 4, !tbaa !5
  %72 = sext i32 %71 to i64
  %73 = icmp slt i64 %25, %72
  br i1 %73, label %24, label %74, !llvm.loop !13

74:                                               ; preds = %69, %0, %12
  call void @llvm.lifetime.end.p0i8(i64 800, i8* nonnull %8) #5
  call void @llvm.lifetime.end.p0i8(i64 800, i8* nonnull %7) #5
  call void @llvm.lifetime.end.p0i8(i64 800, i8* nonnull %6) #5
  call void @llvm.lifetime.end.p0i8(i64 4, i8* nonnull %5) #5
  ret i32 0
}

; Function Attrs: argmemonly mustprogress nofree nosync nounwind willreturn
declare void @llvm.lifetime.start.p0i8(i64 immarg, i8* nocapture) #1

; Function Attrs: argmemonly mustprogress nofree nounwind willreturn writeonly
declare void @llvm.memset.p0i8.i64(i8* nocapture writeonly, i8, i64, i1 immarg) #2

; Function Attrs: nofree nounwind
declare noundef i32 @__isoc99_scanf(i8* nocapture noundef readonly, ...) local_unnamed_addr #3

; Function Attrs: nofree nounwind
declare noundef i32 @printf(i8* nocapture noundef readonly, ...) local_unnamed_addr #3

; Function Attrs: mustprogress nofree nounwind willreturn
declare double @sqrt(double) local_unnamed_addr #4

; Function Attrs: argmemonly mustprogress nofree nosync nounwind willreturn
declare void @llvm.lifetime.end.p0i8(i64 immarg, i8* nocapture) #1


!llvm.module.flags = !{!0, !1, !2, !3}
!llvm.ident = !{!4}

!0 = !{i32 1, !"wchar_size", i32 4}
!1 = !{i32 7, !"PIC Level", i32 2}
!2 = !{i32 7, !"PIE Level", i32 2}
!3 = !{i32 7, !"uwtable", i32 1}
!4 = !{!"clang version 13.0.0"}
!5 = !{!6, !6, i64 0}
!6 = !{!"int", !7, i64 0}
!7 = !{!"omnipotent char", !8, i64 0}
!8 = !{!"Simple C/C++ TBAA"}
!9 = distinct !{!9, !10}
!10 = !{!"llvm.loop.mustprogress"}
!11 = !{!12, !12, i64 0}
!12 = !{!"double", !7, i64 0}
!13 = distinct !{!13, !10}
